target datalayout = "e-m:e-p270:32:32-p271:32:32-p272:64:64-i64:64-i128:128-f80:128-n8:16:32:64-S128"
target triple = "x86_64-pc-linux-gnu"

%"class.clang::Decl.base" = type <{ ptr, %"class.llvm::PointerIntPair.337", %"class.llvm::PointerUnion", %"class.clang::SourceLocation", i32, i8 }>
%"class.llvm::PointerIntPair.337" = type { %"struct.llvm::detail::PunnedPointer.338" }
%"struct.llvm::detail::PunnedPointer.338" = type { [8 x i8] }
%"class.llvm::PointerUnion" = type { %"class.llvm::pointer_union_detail::PointerUnionMembers" }
%"class.llvm::pointer_union_detail::PointerUnionMembers" = type { %"class.llvm::pointer_union_detail::PointerUnionMembers.339" }
%"class.llvm::pointer_union_detail::PointerUnionMembers.339" = type { %"class.llvm::pointer_union_detail::PointerUnionMembers.340" }
%"class.llvm::pointer_union_detail::PointerUnionMembers.340" = type { %"class.llvm::PointerIntPair.341" }
%"class.llvm::PointerIntPair.341" = type { %"struct.llvm::detail::PunnedPointer.342" }
%"struct.llvm::detail::PunnedPointer.342" = type { [8 x i8] }
%"class.clang::SourceLocation" = type { i32 }
%"class.clang::QualType" = type { %"class.llvm::PointerIntPair" }
%"class.llvm::PointerIntPair" = type { %"struct.llvm::detail::PunnedPointer" }
%"struct.llvm::detail::PunnedPointer" = type { [8 x i8] }
%"class.clang::NamedDecl" = type { %"class.clang::Decl.base", %"class.clang::DeclarationName" }
%"class.clang::DeclarationName" = type { i64 }
%"class.clang::DeclContext" = type { ptr, %union.anon.347, ptr, ptr }
%union.anon.347 = type { %"class.clang::DeclContext::RecordDeclBitfields" }
%"class.clang::DeclContext::RecordDeclBitfields" = type { i64 }
%"class.llvm::PointerUnion.348" = type { %"class.llvm::pointer_union_detail::PointerUnionMembers.349" }
%"class.llvm::pointer_union_detail::PointerUnionMembers.349" = type { %"class.llvm::pointer_union_detail::PointerUnionMembers.350" }
%"class.llvm::pointer_union_detail::PointerUnionMembers.350" = type { %"class.llvm::pointer_union_detail::PointerUnionMembers.351" }
%"class.llvm::pointer_union_detail::PointerUnionMembers.351" = type { %"class.llvm::PointerIntPair.352" }
%"class.llvm::PointerIntPair.352" = type { %"struct.llvm::detail::PunnedPointer.342" }
%"class.clang::ValueDecl" = type { %"class.clang::NamedDecl", %"class.clang::QualType" }
%"class.clang::DeclaratorDecl.base" = type <{ %"class.clang::ValueDecl", %"class.llvm::PointerUnion.401", %"class.clang::SourceLocation" }>
%"class.llvm::PointerUnion.401" = type { %"class.llvm::pointer_union_detail::PointerUnionMembers.402" }
%"class.llvm::pointer_union_detail::PointerUnionMembers.402" = type { %"class.llvm::pointer_union_detail::PointerUnionMembers.403" }
%"class.llvm::pointer_union_detail::PointerUnionMembers.403" = type { %"class.llvm::pointer_union_detail::PointerUnionMembers.404" }
%"class.llvm::pointer_union_detail::PointerUnionMembers.404" = type { %"class.llvm::PointerIntPair.405" }
%"class.llvm::PointerIntPair.405" = type { %"struct.llvm::detail::PunnedPointer.342" }
%"struct.clang::LazyOffsetPtr.408" = type { i64 }
%"class.clang::FunctionDecl" = type { %"class.clang::DeclaratorDecl.base", %"class.clang::DeclContext", %"class.clang::Redeclarable.406", ptr, %union.anon.407, i32, %"class.clang::SourceLocation", %"class.clang::SourceLocation", [4 x i8], %"class.llvm::PointerUnion.409", %"class.clang::DeclarationNameLoc" }
%"class.clang::Redeclarable.406" = type { %"class.clang::Redeclarable<clang::FunctionDecl>::DeclLink", ptr }
%"class.clang::Redeclarable<clang::FunctionDecl>::DeclLink" = type { %"class.llvm::PointerUnion.348" }
%union.anon.407 = type { %"struct.clang::LazyOffsetPtr.408" }
%"class.llvm::PointerUnion.409" = type { %"class.llvm::pointer_union_detail::PointerUnionMembers.410" }
%"class.llvm::pointer_union_detail::PointerUnionMembers.410" = type { %"class.llvm::pointer_union_detail::PointerUnionMembers.411" }
%"class.llvm::pointer_union_detail::PointerUnionMembers.411" = type { %"class.llvm::pointer_union_detail::PointerUnionMembers.412" }
%"class.llvm::pointer_union_detail::PointerUnionMembers.412" = type { %"class.llvm::pointer_union_detail::PointerUnionMembers.413" }
%"class.llvm::pointer_union_detail::PointerUnionMembers.413" = type { %"class.llvm::pointer_union_detail::PointerUnionMembers.414" }
%"class.llvm::pointer_union_detail::PointerUnionMembers.414" = type { %"class.llvm::PointerIntPair.415" }
%"class.llvm::PointerIntPair.415" = type { %"struct.llvm::detail::PunnedPointer.342" }
%"class.clang::DeclarationNameLoc" = type { %union.anon.416 }
%union.anon.416 = type { %"struct.clang::DeclarationNameLoc::NT" }
%"struct.clang::DeclarationNameLoc::NT" = type { ptr }

; Function Attrs: mustprogress nounwind uwtable
define linkonce_odr hidden void @_ZN5clang12FunctionDecl11setRangeEndENS_14SourceLocationE(ptr noundef nonnull align 8 dereferenceable(168) %0, i32 %1) #0 comdat align 2 {
  %3 = alloca %"class.clang::SourceLocation", align 4
  %4 = alloca ptr, align 8
  %5 = getelementptr inbounds nuw %"class.clang::SourceLocation", ptr %3, i32 0, i32 0
  store i32 %1, ptr %5, align 4
  store ptr %0, ptr %4, align 8
  %6 = load ptr, ptr %4, align 8
  %7 = getelementptr inbounds nuw %"class.clang::FunctionDecl", ptr %6, i32 0, i32 6
  call void @llvm.memcpy.p0.p0.i64(ptr align 4 %7, ptr align 4 %3, i64 4, i1 false)
  ret void
}

; Function Attrs: mustprogress nounwind uwtable
define linkonce_odr hidden noundef zeroext i1 @_ZNK5clang14SourceLocation7isValidEv(ptr noundef nonnull align 4 dereferenceable(4) %0) #0 comdat align 2 {
  %2 = alloca ptr, align 8
  store ptr %0, ptr %2, align 8
  %3 = load ptr, ptr %2, align 8
  %4 = getelementptr inbounds nuw %"class.clang::SourceLocation", ptr %3, i32 0, i32 0
  %5 = load i32, ptr %4, align 4
  %6 = icmp ne i32 %5, 0
  ret i1 %6
}

; Function Attrs: mustprogress nounwind uwtable
define linkonce_odr hidden void @_ZN5clang13CXXMethodDeclC2ENS_4Decl4KindERNS_10ASTContextEPNS_13CXXRecordDeclENS_14SourceLocationERKNS_19DeclarationNameInfoENS_8QualTypeEPNS_14TypeSourceInfoENS_12StorageClassEbbNS_17ConstexprSpecKindES7_PNS_4ExprE(ptr noundef nonnull align 8 dereferenceable(168) %0, i32 noundef %1, ptr noundef nonnull align 8 dereferenceable(23096) %2, ptr noundef %3, i32 %4, ptr noundef nonnull align 8 dereferenceable(24) %5, i64 %6, ptr noundef %7, i32 noundef %8, i1 noundef zeroext %9, i1 noundef zeroext %10, i32 noundef %11, i32 %12, ptr noundef %13) unnamed_addr #0 comdat align 2 {
  %15 = alloca %"class.clang::SourceLocation", align 4
  %16 = alloca %"class.clang::QualType", align 8
  %17 = alloca %"class.clang::SourceLocation", align 4
  %18 = alloca ptr, align 8
  %19 = alloca i32, align 4
  %20 = alloca ptr, align 8
  %21 = alloca ptr, align 8
  %22 = alloca ptr, align 8
  %23 = alloca ptr, align 8
  %24 = alloca i32, align 4
  %25 = alloca i8, align 1
  %26 = alloca i8, align 1
  %27 = alloca i32, align 4
  %28 = alloca ptr, align 8
  %29 = alloca %"class.clang::SourceLocation", align 4
  %30 = alloca %"class.clang::QualType", align 8
  %31 = alloca %"class.clang::SourceLocation", align 4
  %32 = getelementptr inbounds nuw %"class.clang::SourceLocation", ptr %15, i32 0, i32 0
  store i32 %4, ptr %32, align 4
  %33 = getelementptr inbounds nuw %"class.clang::QualType", ptr %16, i32 0, i32 0
  %34 = getelementptr inbounds nuw %"class.llvm::PointerIntPair", ptr %33, i32 0, i32 0
  %35 = getelementptr inbounds nuw %"struct.llvm::detail::PunnedPointer", ptr %34, i32 0, i32 0
  store i64 %6, ptr %35, align 8
  %36 = getelementptr inbounds nuw %"class.clang::SourceLocation", ptr %17, i32 0, i32 0
  store i32 %12, ptr %36, align 4
  store ptr %0, ptr %18, align 8
  store i32 %1, ptr %19, align 4
  store ptr %2, ptr %20, align 8
  store ptr %3, ptr %21, align 8
  store ptr %5, ptr %22, align 8
  store ptr %7, ptr %23, align 8
  store i32 %8, ptr %24, align 4
  %37 = zext i1 %9 to i8
  store i8 %37, ptr %25, align 1
  %38 = zext i1 %10 to i8
  store i8 %38, ptr %26, align 1
  store i32 %11, ptr %27, align 4
  store ptr %13, ptr %28, align 8
  %39 = load ptr, ptr %18, align 8
  %40 = load i32, ptr %19, align 4
  %41 = load ptr, ptr %20, align 8
  %42 = load ptr, ptr %21, align 8
  %43 = icmp eq ptr %42, null
  br i1 %43, label %46, label %44

44:                                               ; preds = %14
  %45 = getelementptr inbounds i8, ptr %42, i64 64
  br label %46

46:                                               ; preds = %44, %14
  %47 = phi ptr [ %45, %44 ], [ null, %14 ]
  call void @llvm.memcpy.p0.p0.i64(ptr align 4 %29, ptr align 4 %15, i64 4, i1 false)
  %48 = load ptr, ptr %22, align 8
  call void @llvm.memcpy.p0.p0.i64(ptr align 8 %30, ptr align 8 %16, i64 8, i1 false)
  %49 = load ptr, ptr %23, align 8
  %50 = load i32, ptr %24, align 4
  %51 = load i8, ptr %25, align 1
  %52 = trunc i8 %51 to i1
  %53 = load i8, ptr %26, align 1
  %54 = trunc i8 %53 to i1
  %55 = load i32, ptr %27, align 4
  %56 = load ptr, ptr %28, align 8
  %57 = getelementptr inbounds nuw %"class.clang::SourceLocation", ptr %29, i32 0, i32 0
  %58 = load i32, ptr %57, align 4
  %59 = getelementptr inbounds nuw %"class.clang::QualType", ptr %30, i32 0, i32 0
  %60 = getelementptr inbounds nuw %"class.llvm::PointerIntPair", ptr %59, i32 0, i32 0
  %61 = getelementptr inbounds nuw %"struct.llvm::detail::PunnedPointer", ptr %60, i32 0, i32 0
  %62 = load i64, ptr %61, align 8
  call void @_ZN5clang12FunctionDeclC2ENS_4Decl4KindERNS_10ASTContextEPNS_11DeclContextENS_14SourceLocationERKNS_19DeclarationNameInfoENS_8QualTypeEPNS_14TypeSourceInfoENS_12StorageClassEbbNS_17ConstexprSpecKindEPNS_4ExprE(ptr noundef nonnull align 8 dereferenceable(168) %39, i32 noundef %40, ptr noundef nonnull align 8 dereferenceable(23096) %41, ptr noundef %47, i32 %58, ptr noundef nonnull align 8 dereferenceable(24) %48, i64 %62, ptr noundef %49, i32 noundef %50, i1 noundef zeroext %52, i1 noundef zeroext %54, i32 noundef %55, ptr noundef %56)
  store ptr getelementptr inbounds inrange(-16, 104) ({ [15 x ptr] }, ptr @_ZTVN5clang13CXXMethodDeclE, i32 0, i32 0, i32 2), ptr %39, align 8
  %63 = call noundef zeroext i1 @_ZNK5clang14SourceLocation7isValidEv(ptr noundef nonnull align 4 dereferenceable(4) %17)
  br i1 %63, label %64, label %67

64:                                               ; preds = %46
  call void @llvm.memcpy.p0.p0.i64(ptr align 4 %31, ptr align 4 %17, i64 4, i1 false)
  %65 = getelementptr inbounds nuw %"class.clang::SourceLocation", ptr %31, i32 0, i32 0
  %66 = load i32, ptr %65, align 4
  call void @_ZN5clang12FunctionDecl11setRangeEndENS_14SourceLocationE(ptr noundef nonnull align 8 dereferenceable(168) %39, i32 %66)
  br label %67

67:                                               ; preds = %64, %46
  ret void
}

; Function Attrs: mustprogress nounwind uwtable
define dso_local noundef ptr @_ZN5clang13CXXMethodDecl6CreateERNS_10ASTContextEPNS_13CXXRecordDeclENS_14SourceLocationERKNS_19DeclarationNameInfoENS_8QualTypeEPNS_14TypeSourceInfoENS_12StorageClassEbbNS_17ConstexprSpecKindES5_PNS_4ExprE(ptr noundef nonnull align 8 dereferenceable(23096) %0, ptr noundef %1, i32 %2, ptr noundef nonnull align 8 dereferenceable(24) %3, i64 %4, ptr noundef %5, i32 noundef %6, i1 noundef zeroext %7, i1 noundef zeroext %8, i32 noundef %9, i32 %10, ptr noundef %11) #0 align 2 {
  %13 = alloca %"class.clang::SourceLocation", align 4
  %14 = alloca %"class.clang::QualType", align 8
  %15 = alloca %"class.clang::SourceLocation", align 4
  %16 = alloca ptr, align 8
  %17 = alloca ptr, align 8
  %18 = alloca ptr, align 8
  %19 = alloca ptr, align 8
  %20 = alloca i32, align 4
  %21 = alloca i8, align 1
  %22 = alloca i8, align 1
  %23 = alloca i32, align 4
  %24 = alloca ptr, align 8
  %25 = alloca %"class.clang::SourceLocation", align 4
  %26 = alloca %"class.clang::QualType", align 8
  %27 = alloca %"class.clang::SourceLocation", align 4
  %28 = getelementptr inbounds nuw %"class.clang::SourceLocation", ptr %13, i32 0, i32 0
  store i32 %2, ptr %28, align 4
  %29 = getelementptr inbounds nuw %"class.clang::QualType", ptr %14, i32 0, i32 0
  %30 = getelementptr inbounds nuw %"class.llvm::PointerIntPair", ptr %29, i32 0, i32 0
  %31 = getelementptr inbounds nuw %"struct.llvm::detail::PunnedPointer", ptr %30, i32 0, i32 0
  store i64 %4, ptr %31, align 8
  %32 = getelementptr inbounds nuw %"class.clang::SourceLocation", ptr %15, i32 0, i32 0
  store i32 %10, ptr %32, align 4
  store ptr %0, ptr %16, align 8
  store ptr %1, ptr %17, align 8
  store ptr %3, ptr %18, align 8
  store ptr %5, ptr %19, align 8
  store i32 %6, ptr %20, align 4
  %33 = zext i1 %7 to i8
  store i8 %33, ptr %21, align 1
  %34 = zext i1 %8 to i8
  store i8 %34, ptr %22, align 1
  store i32 %9, ptr %23, align 4
  store ptr %11, ptr %24, align 8
  %35 = load ptr, ptr %16, align 8
  %36 = load ptr, ptr %17, align 8
  %37 = icmp eq ptr %36, null
  br i1 %37, label %40, label %38

38:                                               ; preds = %12
  %39 = getelementptr inbounds i8, ptr %36, i64 64
  br label %40

40:                                               ; preds = %38, %12
  %41 = phi ptr [ %39, %38 ], [ null, %12 ]
  %42 = call noundef ptr @_ZN5clang4DeclnwEmRKNS_10ASTContextEPNS_11DeclContextEm(i64 noundef 168, ptr noundef nonnull align 8 dereferenceable(23096) %35, ptr noundef %41, i64 noundef 0)
  %43 = load ptr, ptr %16, align 8
  %44 = load ptr, ptr %17, align 8
  call void @llvm.memcpy.p0.p0.i64(ptr align 4 %25, ptr align 4 %13, i64 4, i1 false)
  %45 = load ptr, ptr %18, align 8
  call void @llvm.memcpy.p0.p0.i64(ptr align 8 %26, ptr align 8 %14, i64 8, i1 false)
  %46 = load ptr, ptr %19, align 8
  %47 = load i32, ptr %20, align 4
  %48 = load i8, ptr %21, align 1
  %49 = trunc i8 %48 to i1
  %50 = load i8, ptr %22, align 1
  %51 = trunc i8 %50 to i1
  %52 = load i32, ptr %23, align 4
  call void @llvm.memcpy.p0.p0.i64(ptr align 4 %27, ptr align 4 %15, i64 4, i1 false)
  %53 = load ptr, ptr %24, align 8
  %54 = getelementptr inbounds nuw %"class.clang::SourceLocation", ptr %25, i32 0, i32 0
  %55 = load i32, ptr %54, align 4
  %56 = getelementptr inbounds nuw %"class.clang::QualType", ptr %26, i32 0, i32 0
  %57 = getelementptr inbounds nuw %"class.llvm::PointerIntPair", ptr %56, i32 0, i32 0
  %58 = getelementptr inbounds nuw %"struct.llvm::detail::PunnedPointer", ptr %57, i32 0, i32 0
  %59 = load i64, ptr %58, align 8
  %60 = getelementptr inbounds nuw %"class.clang::SourceLocation", ptr %27, i32 0, i32 0
  %61 = load i32, ptr %60, align 4
  call void @_ZN5clang13CXXMethodDeclC2ENS_4Decl4KindERNS_10ASTContextEPNS_13CXXRecordDeclENS_14SourceLocationERKNS_19DeclarationNameInfoENS_8QualTypeEPNS_14TypeSourceInfoENS_12StorageClassEbbNS_17ConstexprSpecKindES7_PNS_4ExprE(ptr noundef nonnull align 8 dereferenceable(168) %42, i32 noundef 32, ptr noundef nonnull align 8 dereferenceable(23096) %43, ptr noundef %44, i32 %55, ptr noundef nonnull align 8 dereferenceable(24) %45, i64 %59, ptr noundef %46, i32 noundef %47, i1 noundef zeroext %49, i1 noundef zeroext %51, i32 noundef %52, i32 %61, ptr noundef %53)
  ret ptr %42
}