; Function Attrs: mustprogress nounwind uwtable
define dso_local noundef ptr @_ZN5clang13CXXMethodDecl6CreateERNS_10ASTContextEPNS_13CXXRecordDeclENS_14SourceLocationERKNS_19DeclarationNameInfoENS_8QualTypeEPNS_14TypeSourceInfoENS_12StorageClassEbbNS_17ConstexprSpecKindES5_PNS_4ExprE(ptr noundef nonnull align 8 dereferenceable(23096) %0, ptr noundef %1, i32 %2, ptr noundef nonnull align 8 dereferenceable(24) %3, i64 %4, ptr noundef %5, i32 noundef %6, i1 noundef zeroext %7, i1 noundef zeroext %8, i32 noundef %9, i32 %10, ptr noundef %11) local_unnamed_addr #1 align 2 {
  %13 = icmp eq ptr %1, null
  %14 = getelementptr inbounds nuw i8, ptr %1, i64 64
  %spec.select = select i1 %13, ptr null, ptr %14
  %15 = tail call noundef ptr @_ZN5clang4DeclnwEmRKNS_10ASTContextEPNS_11DeclContextEm(i64 noundef 168, ptr noundef nonnull align 8 dereferenceable(23096) %0, ptr noundef %spec.select, i64 noundef 0) #25
  tail call void @_ZN5clang12FunctionDeclC2ENS_4Decl4KindERNS_10ASTContextEPNS_11DeclContextENS_14SourceLocationERKNS_19DeclarationNameInfoENS_8QualTypeEPNS_14TypeSourceInfoENS_12StorageClassEbbNS_17ConstexprSpecKindEPNS_4ExprE(ptr noundef nonnull align 8 dereferenceable(168) %15, i32 noundef 32, ptr noundef nonnull align 8 dereferenceable(23096) %0, ptr noundef %spec.select, i32 %2, ptr noundef nonnull align 8 dereferenceable(24) %3, i64 %4, ptr noundef %5, i32 noundef %6, i1 noundef zeroext %7, i1 noundef zeroext %8, i32 noundef %9, ptr noundef %11) #25
  store ptr getelementptr inbounds nuw inrange(-16, 104) (i8, ptr @_ZTVN5clang13CXXMethodDeclE, i64 16), ptr %15, align 8
  %.not.i = icmp eq i32 %10, 0
  br i1 %.not.i, label %_ZN5clang13CXXMethodDeclC2ENS_4Decl4KindERNS_10ASTContextEPNS_13CXXRecordDeclENS_14SourceLocationERKNS_19DeclarationNameInfoENS_8QualTypeEPNS_14TypeSourceInfoENS_12StorageClassEbbNS_17ConstexprSpecKindES7_PNS_4ExprE.exit, label %16

16:                                               ; preds = %12
  %17 = getelementptr inbounds nuw i8, ptr %15, i64 140
  store i32 %10, ptr %17, align 4
  br label %_ZN5clang13CXXMethodDeclC2ENS_4Decl4KindERNS_10ASTContextEPNS_13CXXRecordDeclENS_14SourceLocationERKNS_19DeclarationNameInfoENS_8QualTypeEPNS_14TypeSourceInfoENS_12StorageClassEbbNS_17ConstexprSpecKindES7_PNS_4ExprE.exit

_ZN5clang13CXXMethodDeclC2ENS_4Decl4KindERNS_10ASTContextEPNS_13CXXRecordDeclENS_14SourceLocationERKNS_19DeclarationNameInfoENS_8QualTypeEPNS_14TypeSourceInfoENS_12StorageClassEbbNS_17ConstexprSpecKindES7_PNS_4ExprE.exit: ; preds = %12, %16
  ret ptr %15
}